target datalayout = "e-m:e-p270:32:32-p271:32:32-p272:64:64-i64:64-i128:128-f80:128-n8:16:32:64-S128"
target triple = "x86_64-pc-linux-gnu"

%struct._typeobject = type { %struct.PyVarObject, ptr, i64, i64, ptr, i64, ptr, ptr, ptr, ptr, ptr, ptr, ptr, ptr, ptr, ptr, ptr, ptr, ptr, i64, ptr, ptr, ptr, ptr, i64, ptr, ptr, ptr, ptr, ptr, ptr, ptr, ptr, ptr, i64, ptr, ptr, ptr, ptr, ptr, ptr, ptr, ptr, ptr, ptr, ptr, i32, ptr, ptr }
%struct.PyVarObject = type { %struct._object, i64 }
%struct._object = type { i64, ptr }
%"struct.nanobind::detail::type_data" = type { i32, i32, ptr, ptr, ptr, ptr, ptr, ptr, ptr, ptr, %union.anon, ptr, ptr }
%union.anon = type { %struct.anon }
%struct.anon = type { ptr, ptr }
%"struct.nanobind::detail::nb_inst" = type { %struct._object, i32, i32 }

; Function Attrs: inlinehint mustprogress nounwind uwtable
define linkonce_odr hidden void @_Z21nb_enable_try_inc_refP7_object(ptr noundef %0) #2 comdat {
  %2 = alloca ptr, align 8
  store ptr %0, ptr %2, align 8
  ret void
}

; Function Attrs: alwaysinline mustprogress nounwind uwtable
define linkonce_odr hidden noundef ptr @_ZN8nanobind6detail12nb_type_dataEP11_typeobject(ptr noundef %0) #5 comdat {
  %2 = alloca ptr, align 8
  store ptr %0, ptr %2, align 8
  %3 = load ptr, ptr %2, align 8
  %4 = getelementptr inbounds nuw i8, ptr %3, i64 888
  ret ptr %4
}

; Function Attrs: inlinehint mustprogress nounwind uwtable
define internal noundef i32 @_ZL17PyType_HasFeatureP11_typeobjectm(ptr noundef %0, i64 noundef %1) #2 {
  %3 = alloca ptr, align 8
  %4 = alloca i64, align 8
  %5 = alloca i64, align 8
  store ptr %0, ptr %3, align 8
  store i64 %1, ptr %4, align 8
  call void @llvm.lifetime.start.p0(i64 8, ptr %5) #20
  %6 = load ptr, ptr %3, align 8
  %7 = getelementptr inbounds nuw %struct._typeobject, ptr %6, i32 0, i32 19
  %8 = load i64, ptr %7, align 8
  store i64 %8, ptr %5, align 8
  %9 = load i64, ptr %5, align 8
  %10 = load i64, ptr %4, align 8
  %11 = and i64 %9, %10
  %12 = icmp ne i64 %11, 0
  %13 = zext i1 %12 to i32
  call void @llvm.lifetime.end.p0(i64 8, ptr %5) #20
  ret i32 %13
}

; Function Attrs: mustprogress uwtable
define hidden noundef ptr @_ZN8nanobind6detail12inst_new_extEP11_typeobjectPv(ptr noundef %0, ptr noundef %1) #0 {
  %3 = alloca ptr, align 8
  %4 = alloca ptr, align 8
  %5 = alloca ptr, align 8
  %6 = alloca i8, align 1
  %7 = alloca ptr, align 8
  %8 = alloca i32, align 4
  %9 = alloca i32, align 4
  %10 = alloca i8, align 1
  %11 = alloca ptr, align 8
  %12 = alloca ptr, align 8
  %13 = alloca i8, align 1
  store ptr %0, ptr %4, align 8
  store ptr %1, ptr %5, align 8
  call void @llvm.lifetime.start.p0(i64 1, ptr %6) #20
  %14 = load ptr, ptr %4, align 8
  %15 = call noundef i32 @_ZL17PyType_HasFeatureP11_typeobjectm(ptr noundef %14, i64 noundef 16384)
  %16 = icmp ne i32 %15, 0
  %17 = zext i1 %16 to i8
  store i8 %17, ptr %6, align 1
  call void @llvm.lifetime.start.p0(i64 8, ptr %7) #20
  %18 = load i8, ptr %6, align 1, !range !3, !noundef !4
  %19 = trunc i8 %18 to i1
  %20 = xor i1 %19, true
  %21 = zext i1 %20 to i64
  %22 = call i64 @llvm.expect.i64(i64 %21, i64 1)
  %23 = icmp ne i64 %22, 0
  br i1 %23, label %24, label %34

24:                                               ; preds = %2
  %25 = call ptr @PyObject_Malloc(i64 noundef 24)
  store ptr %25, ptr %7, align 8
  %26 = load ptr, ptr %7, align 8
  %27 = icmp ne ptr %26, null
  br i1 %27, label %30, label %28

28:                                               ; preds = %24
  %29 = call ptr @PyErr_NoMemory()
  store ptr %29, ptr %3, align 8
  store i32 1, ptr %8, align 4
  br label %153

30:                                               ; preds = %24
  %31 = load ptr, ptr %7, align 8
  %32 = load ptr, ptr %4, align 8
  %33 = call ptr @PyObject_Init(ptr noundef %31, ptr noundef %32)
  br label %41

34:                                               ; preds = %2
  %35 = load ptr, ptr %4, align 8
  %36 = call ptr @PyType_GenericAlloc(ptr noundef %35, i64 noundef 0)
  store ptr %36, ptr %7, align 8
  %37 = load ptr, ptr %7, align 8
  %38 = icmp ne ptr %37, null
  br i1 %38, label %40, label %39

39:                                               ; preds = %34
  store ptr null, ptr %3, align 8
  store i32 1, ptr %8, align 4
  br label %153

40:                                               ; preds = %34
  br label %41

41:                                               ; preds = %40, %30
  call void @llvm.lifetime.start.p0(i64 4, ptr %9) #20
  %42 = load ptr, ptr %5, align 8
  %43 = ptrtoint ptr %42 to i64
  %44 = load ptr, ptr %7, align 8
  %45 = ptrtoint ptr %44 to i64
  %46 = sub i64 %43, %45
  %47 = trunc i64 %46 to i32
  store i32 %47, ptr %9, align 4
  call void @llvm.lifetime.start.p0(i64 1, ptr %10) #20
  %48 = load ptr, ptr %7, align 8
  %49 = ptrtoint ptr %48 to i64
  %50 = load i32, ptr %9, align 4
  %51 = sext i32 %50 to i64
  %52 = add nsw i64 %49, %51
  %53 = load ptr, ptr %5, align 8
  %54 = ptrtoint ptr %53 to i64
  %55 = icmp eq i64 %52, %54
  %56 = zext i1 %55 to i8
  store i8 %56, ptr %10, align 1
  %57 = load i8, ptr %10, align 1, !range !3, !noundef !4
  %58 = trunc i8 %57 to i1
  %59 = xor i1 %58, true
  %60 = zext i1 %59 to i64
  %61 = call i64 @llvm.expect.i64(i64 %60, i64 0)
  %62 = icmp ne i64 %61, 0
  br i1 %62, label %63, label %87

63:                                               ; preds = %41
  %64 = load i8, ptr %6, align 1, !range !3, !noundef !4
  %65 = trunc i8 %64 to i1
  br i1 %65, label %83, label %66

66:                                               ; preds = %63
  call void @llvm.lifetime.start.p0(i64 8, ptr %11) #20
  %67 = load ptr, ptr %7, align 8
  %68 = call ptr @PyObject_Realloc(ptr noundef %67, i64 noundef 32)
  store ptr %68, ptr %11, align 8
  %69 = load ptr, ptr %11, align 8
  %70 = icmp ne ptr %69, null
  %71 = xor i1 %70, true
  %72 = zext i1 %71 to i64
  %73 = call i64 @llvm.expect.i64(i64 %72, i64 0)
  %74 = icmp ne i64 %73, 0
  br i1 %74, label %75, label %78

75:                                               ; preds = %66
  %76 = load ptr, ptr %7, align 8
  call void @PyObject_Free(ptr noundef %76)
  %77 = call ptr @PyErr_NoMemory()
  store ptr %77, ptr %3, align 8
  store i32 1, ptr %8, align 4
  br label %80

78:                                               ; preds = %66
  %79 = load ptr, ptr %11, align 8
  store ptr %79, ptr %7, align 8
  store i32 0, ptr %8, align 4
  br label %80

80:                                               ; preds = %78, %75
  call void @llvm.lifetime.end.p0(i64 8, ptr %11) #20
  %81 = load i32, ptr %8, align 4
  switch i32 %81, label %152 [
    i32 0, label %82
  ]

82:                                               ; preds = %80
  br label %83

83:                                               ; preds = %82, %63
  %84 = load ptr, ptr %5, align 8
  %85 = load ptr, ptr %7, align 8
  %86 = getelementptr inbounds %"struct.nanobind::detail::nb_inst", ptr %85, i64 1
  store ptr %84, ptr %86, align 8
  store i32 24, ptr %9, align 4
  br label %87

87:                                               ; preds = %83, %41
  call void @llvm.lifetime.start.p0(i64 8, ptr %12) #20
  %88 = load ptr, ptr %4, align 8
  %89 = call noundef ptr @_ZN8nanobind6detail12nb_type_dataEP11_typeobject(ptr noundef %88) #20
  store ptr %89, ptr %12, align 8
  call void @llvm.lifetime.start.p0(i64 1, ptr %13) #20
  %90 = load ptr, ptr %12, align 8
  %91 = getelementptr inbounds nuw %"struct.nanobind::detail::type_data", ptr %90, i32 0, i32 1
  %92 = load i32, ptr %91, align 4
  %93 = lshr i32 %92, 8
  %94 = and i32 %93, 2048
  %95 = icmp ne i32 %94, 0
  %96 = zext i1 %95 to i8
  store i8 %96, ptr %13, align 1
  %97 = load i32, ptr %9, align 4
  %98 = load ptr, ptr %7, align 8
  %99 = getelementptr inbounds nuw %"struct.nanobind::detail::nb_inst", ptr %98, i32 0, i32 1
  store i32 %97, ptr %99, align 8
  %100 = load i8, ptr %10, align 1, !range !3, !noundef !4
  %101 = trunc i8 %100 to i1
  %102 = zext i1 %101 to i32
  %103 = load ptr, ptr %7, align 8
  %104 = getelementptr inbounds nuw %"struct.nanobind::detail::nb_inst", ptr %103, i32 0, i32 2
  %105 = load i32, ptr %104, align 4
  %106 = and i32 %102, 1
  %107 = shl i32 %106, 2
  %108 = and i32 %105, -5
  %109 = or i32 %108, %107
  store i32 %109, ptr %104, align 4
  %110 = load ptr, ptr %7, align 8
  %111 = getelementptr inbounds nuw %"struct.nanobind::detail::nb_inst", ptr %110, i32 0, i32 2
  %112 = load i32, ptr %111, align 4
  %113 = and i32 %112, -9
  %114 = or i32 %113, 0
  store i32 %114, ptr %111, align 4
  %115 = load ptr, ptr %7, align 8
  %116 = getelementptr inbounds nuw %"struct.nanobind::detail::nb_inst", ptr %115, i32 0, i32 2
  %117 = load i32, ptr %116, align 4
  %118 = and i32 %117, -4
  %119 = or i32 %118, 0
  store i32 %119, ptr %116, align 4
  %120 = load ptr, ptr %7, align 8
  %121 = getelementptr inbounds nuw %"struct.nanobind::detail::nb_inst", ptr %120, i32 0, i32 2
  %122 = load i32, ptr %121, align 4
  %123 = and i32 %122, -17
  %124 = or i32 %123, 0
  store i32 %124, ptr %121, align 4
  %125 = load ptr, ptr %7, align 8
  %126 = getelementptr inbounds nuw %"struct.nanobind::detail::nb_inst", ptr %125, i32 0, i32 2
  %127 = load i32, ptr %126, align 4
  %128 = and i32 %127, -33
  %129 = or i32 %128, 0
  store i32 %129, ptr %126, align 4
  %130 = load ptr, ptr %7, align 8
  %131 = getelementptr inbounds nuw %"struct.nanobind::detail::nb_inst", ptr %130, i32 0, i32 2
  %132 = load i32, ptr %131, align 4
  %133 = and i32 %132, -65
  %134 = or i32 %133, 0
  store i32 %134, ptr %131, align 4
  %135 = load i8, ptr %13, align 1, !range !3, !noundef !4
  %136 = trunc i8 %135 to i1
  %137 = zext i1 %136 to i32
  %138 = load ptr, ptr %7, align 8
  %139 = getelementptr inbounds nuw %"struct.nanobind::detail::nb_inst", ptr %138, i32 0, i32 2
  %140 = load i32, ptr %139, align 4
  %141 = and i32 %137, 1
  %142 = shl i32 %141, 7
  %143 = and i32 %140, -129
  %144 = or i32 %143, %142
  store i32 %144, ptr %139, align 4
  %145 = load ptr, ptr %7, align 8
  %146 = getelementptr inbounds nuw %"struct.nanobind::detail::nb_inst", ptr %145, i32 0, i32 2
  %147 = load i32, ptr %146, align 4
  %148 = and i32 %147, 255
  %149 = or i32 %148, 0
  store i32 %149, ptr %146, align 4
  %150 = load ptr, ptr %7, align 8
  call void @_Z21nb_enable_try_inc_refP7_object(ptr noundef %150) #20
  %151 = load ptr, ptr %7, align 8
  store ptr %151, ptr %3, align 8
  store i32 1, ptr %8, align 4
  call void @llvm.lifetime.end.p0(i64 1, ptr %13) #20
  call void @llvm.lifetime.end.p0(i64 8, ptr %12) #20
  br label %152

152:                                              ; preds = %87, %80
  call void @llvm.lifetime.end.p0(i64 1, ptr %10) #20
  call void @llvm.lifetime.end.p0(i64 4, ptr %9) #20
  br label %153

153:                                              ; preds = %152, %39, %28
  call void @llvm.lifetime.end.p0(i64 8, ptr %7) #20
  call void @llvm.lifetime.end.p0(i64 1, ptr %6) #20
  %154 = load ptr, ptr %3, align 8
  ret ptr %154
}