; Function Attrs: mustprogress uwtable
define hidden noundef ptr @_ZN8nanobind6detail12inst_new_extEP11_typeobjectPv(ptr noundef %0, ptr noundef %1) local_unnamed_addr #0 {
  %3 = getelementptr i8, ptr %0, i64 168
  %.val = load i64, ptr %3, align 8
  %4 = and i64 %.val, 16384
  %.not = icmp eq i64 %4, 0
  br i1 %.not, label %5, label %9, !prof !3

5:                                                ; preds = %2
  %6 = tail call ptr @PyObject_Malloc(i64 noundef 24)
  %.not45 = icmp eq ptr %6, null
  br i1 %.not45, label %7, label %11

7:                                                ; preds = %5
  %8 = tail call ptr @PyErr_NoMemory()
  br label %40

9:                                                ; preds = %2
  %10 = tail call ptr @PyType_GenericAlloc(ptr noundef nonnull %0, i64 noundef 0)
  %.not44 = icmp eq ptr %10, null
  br i1 %.not44, label %40, label %.thread

11:                                               ; preds = %5
  %12 = tail call ptr @PyObject_Init(ptr noundef nonnull %6, ptr noundef nonnull %0)
  %13 = ptrtoint ptr %1 to i64
  %14 = ptrtoint ptr %6 to i64
  %15 = sub i64 %13, %14
  %16 = trunc i64 %15 to i32
  %sext = shl i64 %15, 32
  %17 = ashr exact i64 %sext, 32
  %18 = add nsw i64 %17, %14
  %19 = icmp eq i64 %18, %13
  br i1 %19, label %31, label %27, !prof !3

.thread:                                          ; preds = %9
  %20 = ptrtoint ptr %1 to i64
  %21 = ptrtoint ptr %10 to i64
  %22 = sub i64 %20, %21
  %23 = trunc i64 %22 to i32
  %sext48 = shl i64 %22, 32
  %24 = ashr exact i64 %sext48, 32
  %25 = add nsw i64 %24, %21
  %26 = icmp eq i64 %25, %20
  br i1 %26, label %31, label %.thread50, !prof !3

27:                                               ; preds = %11
  %28 = tail call ptr @PyObject_Realloc(ptr noundef nonnull %6, i64 noundef 32)
  %.not46.not = icmp eq ptr %28, null
  br i1 %.not46.not, label %.thread52, label %.thread50, !prof !4

.thread52:                                        ; preds = %27
  tail call void @PyObject_Free(ptr noundef nonnull %6)
  %29 = tail call ptr @PyErr_NoMemory()
  br label %40

.thread50:                                        ; preds = %.thread, %27
  %.239 = phi ptr [ %28, %27 ], [ %10, %.thread ]
  %30 = getelementptr inbounds nuw i8, ptr %.239, i64 24
  store ptr %1, ptr %30, align 8
  br label %31

31:                                               ; preds = %.thread, %.thread50, %11
  %32 = phi i32 [ 0, %.thread50 ], [ 4, %11 ], [ 4, %.thread ]
  %.041 = phi i32 [ 24, %.thread50 ], [ %16, %11 ], [ %23, %.thread ]
  %.138 = phi ptr [ %.239, %.thread50 ], [ %6, %11 ], [ %10, %.thread ]
  %33 = getelementptr inbounds nuw i8, ptr %0, i64 892
  %34 = load i32, ptr %33, align 4
  %35 = getelementptr inbounds nuw i8, ptr %.138, i64 16
  store i32 %.041, ptr %35, align 8
  %36 = getelementptr inbounds nuw i8, ptr %.138, i64 20
  %37 = lshr i32 %34, 12
  %38 = and i32 %37, 128
  %39 = or disjoint i32 %38, %32
  store i32 %39, ptr %36, align 4
  br label %40

40:                                               ; preds = %.thread52, %31, %9, %7
  %.0 = phi ptr [ %8, %7 ], [ null, %9 ], [ %.138, %31 ], [ %29, %.thread52 ]
  ret ptr %.0
}